ccopy_reg
_reconstructor
p0
(cgoogle.oauth2.credentials
Credentials
p1
c__builtin__
object
p2
Ntp3
Rp4
(dp5
S'_token_uri'
p6
Vhttps://oauth2.googleapis.com/token
p7
sS'_client_secret'
p8
V6TmJUR2luLZ5NIF27TEMhyq1
p9
sS'_id_token'
p10
NsS'token'
p11
Vya29.GlvqBlYoCUqW6HBEaQ0u8xPX-NWAZywddcuMR-Ml3Fcrd5ojrPcAPeMq7JvuLGrSVMSZ0h8NXJtkB3EO9XXWJFy4YL2WLrG1d53fP_Em9sTzEkjEuZujnqV3hWE2
p12
sS'_refresh_token'
p13
V1/XJYm9I9HeJJlJO83nbojR7Sg7Z8pCWqim6LkTqc6taAQvCAXAzbHlX9P_7rE2Z50
p14
sS'_scopes'
p15
(lp16
S'https://www.googleapis.com/auth/script.projects'
p17
asS'_client_id'
p18
V523213788478-kjp6hvc0cc1anuko4bvb1qku8ihn3hnu.apps.googleusercontent.com
p19
sS'expiry'
p20
cdatetime
datetime
p21
(S'\x07\xe3\x04\r\x04.\x11\x00\xad\x85'
p22
tp23
Rp24
sb.