ccopy_reg
_reconstructor
p0
(cgoogle.oauth2.credentials
Credentials
p1
c__builtin__
object
p2
Ntp3
Rp4
(dp5
S'_token_uri'
p6
Vhttps://oauth2.googleapis.com/token
p7
sS'_client_secret'
p8
VAI6X7NkZU9Q0uXrvuEtTpiXm
p9
sS'_id_token'
p10
NsS'token'
p11
Vya29.GlvqBrkfiayl0Wl8-1m6Dprb272IvLVtd9JcWxFtYofbhHEH4irltH7ZaG3QJf5lgh2ZSg2oaTwixTGvb1kf17TSgM7bQmQ9HW-wb-fLJux837lXJpPaH1eWJKIr
p12
sS'_refresh_token'
p13
V1/ZKRMQWofMCcrmBIFb0yLgsjwxUHiiXFB2flgLC5qkBM
p14
sS'_scopes'
p15
(lp16
S'https://www.googleapis.com/auth/script.projects'
p17
asS'_client_id'
p18
V3774722764-g1jaoo0euf6ne8fm6sd2uovm77okjoag.apps.googleusercontent.com
p19
sS'expiry'
p20
cdatetime
datetime
p21
(S'\x07\xe3\x04\r\x13$+\x06\xc4I'
p22
tp23
Rp24
sb.